target datalayout = "e-m:e-p270:32:32-p271:32:32-p272:64:64-i64:64-i128:128-f80:128-n8:16:32:64-S128"
target triple = "x86_64-pc-linux-gnu"

%struct.TT_GraphicsState_ = type { i16, i16, i16, %struct.FT_UnitVector_, %struct.FT_UnitVector_, %struct.FT_UnitVector_, i64, i64, i32, i8, i64, i64, i64, i16, i16, i8, i8, i32, i16, i16, i16 }
%struct.FT_UnitVector_ = type { i16, i16 }
%struct.TT_GlyphZoneRec_ = type { ptr, i16, i16, i16, i16, ptr, ptr, ptr, ptr, ptr, i16 }
%struct.FT_Size_Metrics_ = type { i16, i16, i64, i64, i64, i64, i64, i64 }
%struct.TT_Size_Metrics_ = type { i64, i64, i16, i64, i64, [4 x i64], i8, i8, i8 }
%struct.TT_CodeRange_ = type { ptr, i64 }
%struct.TT_ExecContextRec_ = type { ptr, ptr, ptr, i32, i64, i64, ptr, i64, i64, %struct.TT_GlyphZoneRec_, %struct.TT_GlyphZoneRec_, %struct.TT_GlyphZoneRec_, %struct.TT_GlyphZoneRec_, %struct.TT_GlyphZoneRec_, i64, %struct.FT_Size_Metrics_, %struct.TT_Size_Metrics_, %struct.TT_GraphicsState_, i32, i32, ptr, i64, i64, i8, i32, i8, i64, ptr, i64, ptr, i32, ptr, i32, i32, ptr, i32, i32, ptr, i32, i32, i32, i32, ptr, i16, i16, [3 x %struct.TT_CodeRange_], i16, ptr, i16, ptr, i64, i64, i64, i8, %struct.TT_GraphicsState_, i8, i8, i64, ptr, ptr, ptr, ptr, ptr, ptr, ptr, ptr, ptr, ptr, i8, i8, i8, i8, i8, i8, i8, i64, i64, i64, i64 }
%struct.TT_DefRecord_ = type { i32, i64, i64, i32, i8 }
%struct.TT_CallRec_ = type { i32, i64, i64, ptr }

; Function Attrs: nounwind uwtable
define internal void @Ins_JMPR(ptr noundef %0, ptr noundef %1) #0 {
  %3 = alloca ptr, align 8
  %4 = alloca ptr, align 8
  store ptr %0, ptr %3, align 8
  store ptr %1, ptr %4, align 8
  %5 = load ptr, ptr %4, align 8
  %6 = getelementptr inbounds i64, ptr %5, i64 0
  %7 = load i64, ptr %6, align 8
  %8 = icmp eq i64 %7, 0
  br i1 %8, label %9, label %17

9:                                                ; preds = %2
  %10 = load ptr, ptr %3, align 8
  %11 = getelementptr inbounds %struct.TT_ExecContextRec_, ptr %10, i32 0, i32 7
  %12 = load i64, ptr %11, align 8
  %13 = icmp eq i64 %12, 0
  br i1 %13, label %14, label %17

14:                                               ; preds = %9
  %15 = load ptr, ptr %3, align 8
  %16 = getelementptr inbounds %struct.TT_ExecContextRec_, ptr %15, i32 0, i32 3
  store i32 132, ptr %16, align 8
  br label %77

17:                                               ; preds = %9, %2
  %18 = load ptr, ptr %3, align 8
  %19 = getelementptr inbounds %struct.TT_ExecContextRec_, ptr %18, i32 0, i32 21
  %20 = load i64, ptr %19, align 8
  %21 = load ptr, ptr %4, align 8
  %22 = getelementptr inbounds i64, ptr %21, i64 0
  %23 = load i64, ptr %22, align 8
  %24 = add i64 %20, %23
  %25 = load ptr, ptr %3, align 8
  %26 = getelementptr inbounds %struct.TT_ExecContextRec_, ptr %25, i32 0, i32 21
  store i64 %24, ptr %26, align 8
  %27 = load ptr, ptr %3, align 8
  %28 = getelementptr inbounds %struct.TT_ExecContextRec_, ptr %27, i32 0, i32 21
  %29 = load i64, ptr %28, align 8
  %30 = icmp slt i64 %29, 0
  br i1 %30, label %54, label %31

31:                                               ; preds = %17
  %32 = load ptr, ptr %3, align 8
  %33 = getelementptr inbounds %struct.TT_ExecContextRec_, ptr %32, i32 0, i32 40
  %34 = load i32, ptr %33, align 8
  %35 = icmp sgt i32 %34, 0
  br i1 %35, label %36, label %57

36:                                               ; preds = %31
  %37 = load ptr, ptr %3, align 8
  %38 = getelementptr inbounds %struct.TT_ExecContextRec_, ptr %37, i32 0, i32 21
  %39 = load i64, ptr %38, align 8
  %40 = load ptr, ptr %3, align 8
  %41 = getelementptr inbounds %struct.TT_ExecContextRec_, ptr %40, i32 0, i32 42
  %42 = load ptr, ptr %41, align 8
  %43 = load ptr, ptr %3, align 8
  %44 = getelementptr inbounds %struct.TT_ExecContextRec_, ptr %43, i32 0, i32 40
  %45 = load i32, ptr %44, align 8
  %46 = sub nsw i32 %45, 1
  %47 = sext i32 %46 to i64
  %48 = getelementptr inbounds %struct.TT_CallRec_, ptr %42, i64 %47
  %49 = getelementptr inbounds %struct.TT_CallRec_, ptr %48, i32 0, i32 3
  %50 = load ptr, ptr %49, align 8
  %51 = getelementptr inbounds %struct.TT_DefRecord_, ptr %50, i32 0, i32 2
  %52 = load i64, ptr %51, align 8
  %53 = icmp sgt i64 %39, %52
  br i1 %53, label %54, label %57

54:                                               ; preds = %36, %17
  %55 = load ptr, ptr %3, align 8
  %56 = getelementptr inbounds %struct.TT_ExecContextRec_, ptr %55, i32 0, i32 3
  store i32 132, ptr %56, align 8
  br label %77

57:                                               ; preds = %36, %31
  %58 = load ptr, ptr %3, align 8
  %59 = getelementptr inbounds %struct.TT_ExecContextRec_, ptr %58, i32 0, i32 25
  store i8 0, ptr %59, align 8
  %60 = load ptr, ptr %4, align 8
  %61 = getelementptr inbounds i64, ptr %60, i64 0
  %62 = load i64, ptr %61, align 8
  %63 = icmp slt i64 %62, 0
  br i1 %63, label %64, label %77

64:                                               ; preds = %57
  %65 = load ptr, ptr %3, align 8
  %66 = getelementptr inbounds %struct.TT_ExecContextRec_, ptr %65, i32 0, i32 77
  %67 = load i64, ptr %66, align 8
  %68 = add i64 %67, 1
  store i64 %68, ptr %66, align 8
  %69 = load ptr, ptr %3, align 8
  %70 = getelementptr inbounds %struct.TT_ExecContextRec_, ptr %69, i32 0, i32 78
  %71 = load i64, ptr %70, align 8
  %72 = icmp ugt i64 %68, %71
  br i1 %72, label %73, label %76

73:                                               ; preds = %64
  %74 = load ptr, ptr %3, align 8
  %75 = getelementptr inbounds %struct.TT_ExecContextRec_, ptr %74, i32 0, i32 3
  store i32 139, ptr %75, align 8
  br label %76

76:                                               ; preds = %73, %64
  br label %77

77:                                               ; preds = %76, %57, %54, %14
  ret void
}

; Function Attrs: nounwind uwtable
define internal void @Ins_JROF(ptr noundef %0, ptr noundef %1) #0 {
  %3 = alloca ptr, align 8
  %4 = alloca ptr, align 8
  store ptr %0, ptr %3, align 8
  store ptr %1, ptr %4, align 8
  %5 = load ptr, ptr %4, align 8
  %6 = getelementptr inbounds i64, ptr %5, i64 1
  %7 = load i64, ptr %6, align 8
  %8 = icmp eq i64 %7, 0
  br i1 %8, label %9, label %12

9:                                                ; preds = %2
  %10 = load ptr, ptr %3, align 8
  %11 = load ptr, ptr %4, align 8
  call void @Ins_JMPR(ptr noundef %10, ptr noundef %11)
  br label %12

12:                                               ; preds = %9, %2
  ret void
}