; Function Attrs: mustprogress nofree norecurse nosync nounwind willreturn memory(read, argmem: readwrite, inaccessiblemem: none) uwtable
define internal fastcc void @Ins_JROF(ptr nocapture noundef %0, ptr nocapture noundef readonly %1) unnamed_addr #8 {
  %3 = getelementptr inbounds i8, ptr %1, i64 8
  %4 = load i64, ptr %3, align 8
  %5 = icmp eq i64 %4, 0
  br i1 %5, label %6, label %Ins_JMPR.exit

6:                                                ; preds = %2
  %7 = load i64, ptr %1, align 8
  %8 = icmp eq i64 %7, 0
  br i1 %8, label %9, label %13

9:                                                ; preds = %6
  %10 = getelementptr inbounds i8, ptr %0, i64 56
  %11 = load i64, ptr %10, align 8
  %12 = icmp eq i64 %11, 0
  br i1 %12, label %.sink.split.i, label %13

13:                                               ; preds = %9, %6
  %14 = getelementptr inbounds i8, ptr %0, i64 648
  %15 = load i64, ptr %14, align 8
  %16 = add i64 %15, %7
  store i64 %16, ptr %14, align 8
  %17 = icmp slt i64 %16, 0
  br i1 %17, label %.sink.split.i, label %18

18:                                               ; preds = %13
  %19 = getelementptr inbounds i8, ptr %0, i64 768
  %20 = load i32, ptr %19, align 8
  %21 = icmp sgt i32 %20, 0
  br i1 %21, label %22, label %32

22:                                               ; preds = %18
  %23 = getelementptr inbounds i8, ptr %0, i64 776
  %24 = load ptr, ptr %23, align 8
  %25 = zext nneg i32 %20 to i64
  %26 = getelementptr %struct.TT_CallRec_, ptr %24, i64 %25
  %27 = getelementptr i8, ptr %26, i64 -8
  %28 = load ptr, ptr %27, align 8
  %29 = getelementptr inbounds i8, ptr %28, i64 16
  %30 = load i64, ptr %29, align 8
  %31 = icmp sgt i64 %16, %30
  br i1 %31, label %.sink.split.i, label %32

32:                                               ; preds = %22, %18
  %33 = getelementptr inbounds i8, ptr %0, i64 672
  store i8 0, ptr %33, align 8
  %34 = load i64, ptr %1, align 8
  %35 = icmp slt i64 %34, 0
  br i1 %35, label %36, label %Ins_JMPR.exit

36:                                               ; preds = %32
  %37 = getelementptr inbounds i8, ptr %0, i64 1120
  %38 = load i64, ptr %37, align 8
  %39 = add i64 %38, 1
  store i64 %39, ptr %37, align 8
  %40 = getelementptr inbounds i8, ptr %0, i64 1128
  %41 = load i64, ptr %40, align 8
  %42 = icmp ugt i64 %39, %41
  br i1 %42, label %.sink.split.i, label %Ins_JMPR.exit

.sink.split.i:                                    ; preds = %36, %22, %13, %9
  %.sink.i = phi i32 [ 132, %9 ], [ 132, %22 ], [ 132, %13 ], [ 139, %36 ]
  %43 = getelementptr inbounds i8, ptr %0, i64 24
  store i32 %.sink.i, ptr %43, align 8
  br label %Ins_JMPR.exit

Ins_JMPR.exit:                                    ; preds = %.sink.split.i, %36, %32, %2
  ret void
}